; Function Attrs: nounwind uwtable
define dso_local i64 @ZSTD_decompressBlock_deprecated(ptr noundef %0, ptr noundef %1, i64 noundef %2, ptr noundef %3, i64 noundef %4) local_unnamed_addr #1 {
  %6 = getelementptr inbounds nuw i8, ptr %0, i64 29888
  %7 = load ptr, ptr %6, align 8
  %8 = icmp ne ptr %1, %7
  %9 = icmp ne i64 %2, 0
  %or.cond.i = and i1 %9, %8
  br i1 %or.cond.i, label %10, label %ZSTD_checkContinuity.exit

10:                                               ; preds = %5
  %11 = getelementptr inbounds nuw i8, ptr %0, i64 29912
  store ptr %7, ptr %11, align 8
  %12 = getelementptr inbounds nuw i8, ptr %0, i64 29896
  %13 = load ptr, ptr %12, align 8
  %14 = ptrtoint ptr %7 to i64
  %15 = ptrtoint ptr %13 to i64
  %.neg.i = sub i64 %15, %14
  %16 = getelementptr inbounds i8, ptr %1, i64 %.neg.i
  %17 = getelementptr inbounds nuw i8, ptr %0, i64 29904
  store ptr %16, ptr %17, align 8
  store ptr %1, ptr %12, align 8
  store ptr %1, ptr %6, align 8
  br label %ZSTD_checkContinuity.exit

ZSTD_checkContinuity.exit:                        ; preds = %5, %10
  %18 = tail call i64 @ZSTD_decompressBlock_internal(ptr noundef nonnull %0, ptr noundef %1, i64 noundef %2, ptr noundef %3, i64 noundef %4, i32 noundef 0, i32 noundef 0)
  %19 = getelementptr inbounds i8, ptr %1, i64 %18
  store ptr %19, ptr %6, align 8
  ret i64 %18
}